target datalayout = "e-m:e-p270:32:32-p271:32:32-p272:64:64-i64:64-i128:128-f80:128-n8:16:32:64-S128"
target triple = "x86_64-pc-linux-gnu"

%struct._packet_info = type { ptr, ptr, i32, i32, %struct.nstime_t, %struct.nstime_t, %struct.nstime_t, i8, ptr, ptr, ptr, ptr, %struct._address, %struct._address, %struct._address, %struct._address, %struct._address, %struct._address, i32, ptr, i8, [3 x i8], %struct.anon, i32, i32, i32, i32, ptr, i8, ptr, ptr, i16, i16, i32, i32, i16, i32, i32, ptr, ptr, ptr, i8, i8, i16, i16, i16, i32, i16, i16, ptr, ptr, ptr, ptr, ptr, i32, i32 }
%struct.nstime_t = type { i64, i32 }
%struct._address = type { i32, i32, ptr, ptr }
%struct.anon = type { i8, [3 x i8] }

@hf_nan_action_subtype = internal global i32 0, align 4
@ett_nan = internal global i32 0, align 4
@proto_nan = internal global i32 0, align 4
@.str.712 = private unnamed_addr constant [4 x i8] c"NAN\00", align 1
@.str.713 = private unnamed_addr constant [18 x i8] c"Unknown type (%u)\00", align 1
@.str.714 = private unnamed_addr constant [3 x i8] c"%s\00", align 1

; Function Attrs: null_pointer_is_valid sspstrong uwtable
define internal i32 @dissect_nan_action(ptr noundef %0, ptr noundef %1, ptr noundef %2, ptr noundef %3) #0 {
  %5 = alloca ptr, align 8
  %6 = alloca ptr, align 8
  %7 = alloca ptr, align 8
  %8 = alloca ptr, align 8
  %9 = alloca i32, align 4
  %10 = alloca ptr, align 8
  %11 = alloca ptr, align 8
  %12 = alloca ptr, align 8
  %13 = alloca i8, align 1
  %14 = alloca ptr, align 8
  %15 = alloca i32, align 4
  store ptr %0, ptr %5, align 8
  store ptr %1, ptr %6, align 8
  store ptr %2, ptr %7, align 8
  store ptr %3, ptr %8, align 8
  call void @llvm.lifetime.start.p0(i64 4, ptr %9) #5
  store i32 0, ptr %9, align 4
  %16 = load ptr, ptr %6, align 8
  %17 = getelementptr inbounds nuw %struct._packet_info, ptr %16, i32 0, i32 1
  %18 = load ptr, ptr %17, align 8
  call void @col_set_str(ptr noundef %18, i32 noundef 35, ptr noundef @.str.712)
  call void @llvm.lifetime.start.p0(i64 8, ptr %10) #5
  %19 = load ptr, ptr %7, align 8
  %20 = call ptr @proto_tree_get_parent_tree(ptr noundef %19)
  store ptr %20, ptr %10, align 8
  call void @llvm.lifetime.start.p0(i64 8, ptr %11) #5
  %21 = load ptr, ptr %10, align 8
  %22 = load i32, ptr @proto_nan, align 4
  %23 = load ptr, ptr %5, align 8
  %24 = call ptr @proto_tree_add_item(ptr noundef %21, i32 noundef %22, ptr noundef %23, i32 noundef 0, i32 noundef -1, i32 noundef 0)
  store ptr %24, ptr %11, align 8
  call void @llvm.lifetime.start.p0(i64 8, ptr %12) #5
  %25 = load ptr, ptr %11, align 8
  %26 = load i32, ptr @ett_nan, align 4
  %27 = call ptr @proto_item_add_subtree(ptr noundef %25, i32 noundef %26)
  store ptr %27, ptr %12, align 8
  call void @llvm.lifetime.start.p0(i64 1, ptr %13) #5
  %28 = load ptr, ptr %5, align 8
  %29 = load i32, ptr %9, align 4
  %30 = call zeroext i8 @tvb_get_uint8(ptr noundef %28, i32 noundef %29)
  store i8 %30, ptr %13, align 1
  call void @llvm.lifetime.start.p0(i64 8, ptr %14) #5
  %31 = load i8, ptr %13, align 1
  %32 = zext i8 %31 to i32
  %33 = call ptr @rval_to_str(i32 noundef %32, ptr noundef @action_frame_type_values, ptr noundef @.str.713)
  store ptr %33, ptr %14, align 8
  %34 = load ptr, ptr %11, align 8
  %35 = load ptr, ptr %14, align 8
  call void (ptr, ptr, ...) @proto_item_set_text(ptr noundef %34, ptr noundef @.str.714, ptr noundef %35)
  %36 = load ptr, ptr %12, align 8
  %37 = load i32, ptr @hf_nan_action_subtype, align 4
  %38 = load ptr, ptr %5, align 8
  %39 = load i32, ptr %9, align 4
  %40 = call ptr @proto_tree_add_item(ptr noundef %36, i32 noundef %37, ptr noundef %38, i32 noundef %39, i32 noundef 1, i32 noundef 0)
  %41 = load ptr, ptr %6, align 8
  %42 = getelementptr inbounds nuw %struct._packet_info, ptr %41, i32 0, i32 1
  %43 = load ptr, ptr %42, align 8
  %44 = load ptr, ptr %14, align 8
  call void (ptr, i32, ptr, ...) @col_prepend_fstr(ptr noundef %43, i32 noundef 25, ptr noundef @.str.714, ptr noundef %44)
  %45 = load i32, ptr %9, align 4
  %46 = add i32 %45, 1
  store i32 %46, ptr %9, align 4
  call void @llvm.lifetime.start.p0(i64 4, ptr %15) #5
  %47 = load ptr, ptr %5, align 8
  %48 = call i32 @tvb_reported_length(ptr noundef %47)
  store i32 %48, ptr %15, align 4
  br label %49

49:                                               ; preds = %53, %4
  %50 = load i32, ptr %9, align 4
  %51 = load i32, ptr %15, align 4
  %52 = icmp ult i32 %50, %51
  br i1 %52, label %53, label %58

53:                                               ; preds = %49
  %54 = load ptr, ptr %12, align 8
  %55 = load ptr, ptr %5, align 8
  %56 = load i32, ptr %15, align 4
  %57 = load ptr, ptr %6, align 8
  call void @find_attribute_field(ptr noundef %54, ptr noundef %55, i32 noundef %56, ptr noundef %9, ptr noundef %57)
  br label %49, !llvm.loop !6

58:                                               ; preds = %49
  %59 = load ptr, ptr %5, align 8
  %60 = call i32 @tvb_captured_length(ptr noundef %59)
  call void @llvm.lifetime.end.p0(i64 4, ptr %15) #5
  call void @llvm.lifetime.end.p0(i64 8, ptr %14) #5
  call void @llvm.lifetime.end.p0(i64 1, ptr %13) #5
  call void @llvm.lifetime.end.p0(i64 8, ptr %12) #5
  call void @llvm.lifetime.end.p0(i64 8, ptr %11) #5
  call void @llvm.lifetime.end.p0(i64 8, ptr %10) #5
  call void @llvm.lifetime.end.p0(i64 4, ptr %9) #5
  ret i32 %60
}