; Function Attrs: null_pointer_is_valid sspstrong uwtable
define internal i32 @dissect_nan_action(ptr noundef %0, ptr noundef %1, ptr noundef %2, ptr readnone captures(none) %3) #0 {
  %5 = alloca i32, align 4
  call void @llvm.lifetime.start.p0(i64 4, ptr nonnull %5) #5
  %6 = getelementptr inbounds nuw i8, ptr %1, i64 8
  %7 = load ptr, ptr %6, align 8
  tail call void @col_set_str(ptr noundef %7, i32 noundef 35, ptr noundef nonnull @.str.712)
  %8 = tail call ptr @proto_tree_get_parent_tree(ptr noundef %2)
  %9 = load i32, ptr @proto_nan, align 4
  %10 = tail call ptr @proto_tree_add_item(ptr noundef %8, i32 noundef %9, ptr noundef %0, i32 noundef 0, i32 noundef -1, i32 noundef 0)
  %11 = load i32, ptr @ett_nan, align 4
  %12 = tail call ptr @proto_item_add_subtree(ptr noundef %10, i32 noundef %11)
  %13 = tail call zeroext i8 @tvb_get_uint8(ptr noundef %0, i32 noundef 0)
  %14 = zext i8 %13 to i32
  %15 = tail call ptr @rval_to_str(i32 noundef %14, ptr noundef nonnull @action_frame_type_values, ptr noundef nonnull @.str.713)
  tail call void (ptr, ptr, ...) @proto_item_set_text(ptr noundef %10, ptr noundef nonnull @.str.714, ptr noundef %15)
  %16 = load i32, ptr @hf_nan_action_subtype, align 4
  %17 = tail call ptr @proto_tree_add_item(ptr noundef %12, i32 noundef %16, ptr noundef %0, i32 noundef 0, i32 noundef 1, i32 noundef 0)
  %18 = load ptr, ptr %6, align 8
  tail call void (ptr, i32, ptr, ...) @col_prepend_fstr(ptr noundef %18, i32 noundef 25, ptr noundef nonnull @.str.714, ptr noundef %15)
  store i32 1, ptr %5, align 4
  %19 = tail call i32 @tvb_reported_length(ptr noundef %0)
  %20 = icmp ugt i32 %19, 1
  br i1 %20, label %.lr.ph, label %._crit_edge

.lr.ph:                                           ; preds = %4, %.lr.ph
  call fastcc void @find_attribute_field(ptr noundef %12, ptr noundef %0, i32 noundef %19, ptr noundef nonnull %5, ptr noundef %1)
  %21 = load i32, ptr %5, align 4
  %22 = icmp ult i32 %21, %19
  br i1 %22, label %.lr.ph, label %._crit_edge, !llvm.loop !6

._crit_edge:                                      ; preds = %.lr.ph, %4
  %23 = tail call i32 @tvb_captured_length(ptr noundef %0)
  call void @llvm.lifetime.end.p0(i64 4, ptr nonnull %5) #5
  ret i32 %23
}